target datalayout = "e-m:e-p270:32:32-p271:32:32-p272:64:64-i64:64-i128:128-f80:128-n8:16:32:64-S128"
target triple = "x86_64-pc-linux-gnu"

@ett_data = internal global i32 0, align 4
@hf_nvmeof_prop_get_set_data = internal global i32 0, align 4
@hf_nvmeof_prop_get_set_data_4B = internal global i32 0, align 4
@hf_nvmeof_prop_get_set_data_4B_rsvd = internal global i32 0, align 4
@hf_nvmeof_prop_get_set_data_8B = internal global i32 0, align 4
@hf_nvmeof_prop_get_set_cc = internal global [10 x i32] zeroinitializer, align 16
@hf_nvmeof_prop_get_set_csts = internal global [7 x i32] zeroinitializer, align 16
@hf_nvmeof_prop_get_set_nssr = internal global [2 x i32] zeroinitializer, align 4
@hf_nvmeof_prop_get_ccap = internal global [17 x i32] zeroinitializer, align 16
@hf_nvmeof_prop_get_vs = internal global [4 x i32] zeroinitializer, align 16

; Function Attrs: null_pointer_is_valid sspstrong uwtable
define internal void @add_group_mask_entry(ptr noundef %0, ptr noundef %1, i32 noundef %2, i32 noundef %3, ptr noundef %4, i32 noundef %5) #0 {
  %7 = alloca ptr, align 8
  %8 = alloca ptr, align 8
  %9 = alloca i32, align 4
  %10 = alloca i32, align 4
  %11 = alloca ptr, align 8
  %12 = alloca i32, align 4
  %13 = alloca ptr, align 8
  %14 = alloca ptr, align 8
  %15 = alloca i32, align 4
  store ptr %0, ptr %7, align 8
  store ptr %1, ptr %8, align 8
  store i32 %2, ptr %9, align 4
  store i32 %3, ptr %10, align 4
  store ptr %4, ptr %11, align 8
  store i32 %5, ptr %12, align 4
  call void @llvm.lifetime.start.p0(i64 8, ptr %13) #9
  call void @llvm.lifetime.start.p0(i64 8, ptr %14) #9
  call void @llvm.lifetime.start.p0(i64 4, ptr %15) #9
  %16 = load ptr, ptr %8, align 8
  %17 = load ptr, ptr %11, align 8
  %18 = getelementptr i32, ptr %17, i64 0
  %19 = load i32, ptr %18, align 4
  %20 = load ptr, ptr %7, align 8
  %21 = load i32, ptr %9, align 4
  %22 = load i32, ptr %10, align 4
  %23 = call ptr @proto_tree_add_item(ptr noundef %16, i32 noundef %19, ptr noundef %20, i32 noundef %21, i32 noundef %22, i32 noundef -2147483648)
  store ptr %23, ptr %13, align 8
  %24 = load ptr, ptr %13, align 8
  %25 = load i32, ptr @ett_data, align 4
  %26 = call ptr @proto_item_add_subtree(ptr noundef %24, i32 noundef %25)
  store ptr %26, ptr %14, align 8
  store i32 1, ptr %15, align 4
  br label %27

27:                                               ; preds = %42, %6
  %28 = load i32, ptr %15, align 4
  %29 = load i32, ptr %12, align 4
  %30 = icmp ult i32 %28, %29
  br i1 %30, label %31, label %45

31:                                               ; preds = %27
  %32 = load ptr, ptr %14, align 8
  %33 = load ptr, ptr %11, align 8
  %34 = load i32, ptr %15, align 4
  %35 = zext i32 %34 to i64
  %36 = getelementptr i32, ptr %33, i64 %35
  %37 = load i32, ptr %36, align 4
  %38 = load ptr, ptr %7, align 8
  %39 = load i32, ptr %9, align 4
  %40 = load i32, ptr %10, align 4
  %41 = call ptr @proto_tree_add_item(ptr noundef %32, i32 noundef %37, ptr noundef %38, i32 noundef %39, i32 noundef %40, i32 noundef -2147483648)
  br label %42

42:                                               ; preds = %31
  %43 = load i32, ptr %15, align 4
  %44 = add i32 %43, 1
  store i32 %44, ptr %15, align 4
  br label %27, !llvm.loop !14

45:                                               ; preds = %27
  call void @llvm.lifetime.end.p0(i64 4, ptr %15) #9
  call void @llvm.lifetime.end.p0(i64 8, ptr %14) #9
  call void @llvm.lifetime.end.p0(i64 8, ptr %13) #9
  ret void
}

; Function Attrs: null_pointer_is_valid sspstrong uwtable
define internal void @dissect_nvmeof_fabric_prop_data(ptr noundef %0, ptr noundef %1, i32 noundef %2, i32 noundef %3, i8 noundef zeroext %4) #0 {
  %6 = alloca ptr, align 8
  %7 = alloca ptr, align 8
  %8 = alloca i32, align 4
  %9 = alloca i32, align 4
  %10 = alloca i8, align 1
  %11 = alloca ptr, align 8
  %12 = alloca ptr, align 8
  store ptr %0, ptr %6, align 8
  store ptr %1, ptr %7, align 8
  store i32 %2, ptr %8, align 4
  store i32 %3, ptr %9, align 4
  store i8 %4, ptr %10, align 1
  call void @llvm.lifetime.start.p0(i64 8, ptr %11) #9
  call void @llvm.lifetime.start.p0(i64 8, ptr %12) #9
  %13 = load ptr, ptr %6, align 8
  %14 = load i32, ptr @hf_nvmeof_prop_get_set_data, align 4
  %15 = load ptr, ptr %7, align 8
  %16 = load i32, ptr %8, align 4
  %17 = call ptr @proto_tree_add_item(ptr noundef %13, i32 noundef %14, ptr noundef %15, i32 noundef %16, i32 noundef 8, i32 noundef 0)
  store ptr %17, ptr %11, align 8
  %18 = load ptr, ptr %11, align 8
  %19 = load i32, ptr @ett_data, align 4
  %20 = call ptr @proto_item_add_subtree(ptr noundef %18, i32 noundef %19)
  store ptr %20, ptr %12, align 8
  %21 = load i32, ptr %9, align 4
  switch i32 %21, label %42 [
    i32 0, label %22
    i32 8, label %26
    i32 20, label %30
    i32 28, label %34
    i32 32, label %38
  ]

22:                                               ; preds = %5
  %23 = load ptr, ptr %7, align 8
  %24 = load ptr, ptr %12, align 8
  %25 = load i32, ptr %8, align 4
  call void @add_group_mask_entry(ptr noundef %23, ptr noundef %24, i32 noundef %25, i32 noundef 8, ptr noundef @hf_nvmeof_prop_get_ccap, i32 noundef 17)
  store i8 1, ptr %10, align 1
  br label %59

26:                                               ; preds = %5
  %27 = load ptr, ptr %7, align 8
  %28 = load ptr, ptr %12, align 8
  %29 = load i32, ptr %8, align 4
  call void @add_group_mask_entry(ptr noundef %27, ptr noundef %28, i32 noundef %29, i32 noundef 4, ptr noundef @hf_nvmeof_prop_get_vs, i32 noundef 4)
  store i8 0, ptr %10, align 1
  br label %59

30:                                               ; preds = %5
  %31 = load ptr, ptr %7, align 8
  %32 = load ptr, ptr %12, align 8
  %33 = load i32, ptr %8, align 4
  call void @add_group_mask_entry(ptr noundef %31, ptr noundef %32, i32 noundef %33, i32 noundef 4, ptr noundef @hf_nvmeof_prop_get_set_cc, i32 noundef 10)
  store i8 0, ptr %10, align 1
  br label %59

34:                                               ; preds = %5
  %35 = load ptr, ptr %7, align 8
  %36 = load ptr, ptr %12, align 8
  %37 = load i32, ptr %8, align 4
  call void @add_group_mask_entry(ptr noundef %35, ptr noundef %36, i32 noundef %37, i32 noundef 4, ptr noundef @hf_nvmeof_prop_get_set_csts, i32 noundef 7)
  store i8 0, ptr %10, align 1
  br label %59

38:                                               ; preds = %5
  %39 = load ptr, ptr %7, align 8
  %40 = load ptr, ptr %12, align 8
  %41 = load i32, ptr %8, align 4
  call void @add_group_mask_entry(ptr noundef %39, ptr noundef %40, i32 noundef %41, i32 noundef 4, ptr noundef @hf_nvmeof_prop_get_set_nssr, i32 noundef 2)
  store i8 0, ptr %10, align 1
  br label %59

42:                                               ; preds = %5
  %43 = load i8, ptr %10, align 1
  %44 = zext i8 %43 to i32
  %45 = icmp eq i32 %44, 0
  br i1 %45, label %46, label %52

46:                                               ; preds = %42
  %47 = load ptr, ptr %12, align 8
  %48 = load i32, ptr @hf_nvmeof_prop_get_set_data_4B, align 4
  %49 = load ptr, ptr %7, align 8
  %50 = load i32, ptr %8, align 4
  %51 = call ptr @proto_tree_add_item(ptr noundef %47, i32 noundef %48, ptr noundef %49, i32 noundef %50, i32 noundef 4, i32 noundef -2147483648)
  br label %58

52:                                               ; preds = %42
  %53 = load ptr, ptr %12, align 8
  %54 = load i32, ptr @hf_nvmeof_prop_get_set_data_8B, align 4
  %55 = load ptr, ptr %7, align 8
  %56 = load i32, ptr %8, align 4
  %57 = call ptr @proto_tree_add_item(ptr noundef %53, i32 noundef %54, ptr noundef %55, i32 noundef %56, i32 noundef 8, i32 noundef -2147483648)
  br label %58

58:                                               ; preds = %52, %46
  br label %59

59:                                               ; preds = %58, %38, %34, %30, %26, %22
  %60 = load i8, ptr %10, align 1
  %61 = zext i8 %60 to i32
  %62 = icmp eq i32 %61, 0
  br i1 %62, label %63, label %70

63:                                               ; preds = %59
  %64 = load ptr, ptr %12, align 8
  %65 = load i32, ptr @hf_nvmeof_prop_get_set_data_4B_rsvd, align 4
  %66 = load ptr, ptr %7, align 8
  %67 = load i32, ptr %8, align 4
  %68 = add i32 %67, 4
  %69 = call ptr @proto_tree_add_item(ptr noundef %64, i32 noundef %65, ptr noundef %66, i32 noundef %68, i32 noundef 4, i32 noundef -2147483648)
  br label %70

70:                                               ; preds = %63, %59
  call void @llvm.lifetime.end.p0(i64 8, ptr %12) #9
  call void @llvm.lifetime.end.p0(i64 8, ptr %11) #9
  ret void
}