; Function Attrs: null_pointer_is_valid sspstrong uwtable
define internal fastcc void @dissect_nvmeof_fabric_prop_data(ptr noundef %0, ptr noundef %1, i32 noundef %2, i32 noundef %3, i8 noundef zeroext range(i8 0, 8) %4) unnamed_addr #0 {
  %6 = load i32, ptr @hf_nvmeof_prop_get_set_data, align 4
  %7 = tail call ptr @proto_tree_add_item(ptr noundef %0, i32 noundef %6, ptr noundef %1, i32 noundef %2, i32 noundef 8, i32 noundef 0)
  %8 = load i32, ptr @ett_data, align 4
  %9 = tail call ptr @proto_item_add_subtree(ptr noundef %7, i32 noundef %8)
  %10 = tail call i32 @llvm.fshl.i32(i32 %3, i32 %3, i32 30)
  switch i32 %10, label %53 [
    i32 0, label %11
    i32 2, label %20
    i32 5, label %29
    i32 7, label %38
    i32 8, label %.critedge.loopexit51
  ]

11:                                               ; preds = %5
  %12 = load i32, ptr @hf_nvmeof_prop_get_ccap, align 16
  %13 = tail call ptr @proto_tree_add_item(ptr noundef %9, i32 noundef %12, ptr noundef %1, i32 noundef %2, i32 noundef 8, i32 noundef -2147483648)
  %14 = load i32, ptr @ett_data, align 4
  %15 = tail call ptr @proto_item_add_subtree(ptr noundef %13, i32 noundef %14)
  br label %16

16:                                               ; preds = %16, %11
  %indvars.iv.i = phi i64 [ 1, %11 ], [ %indvars.iv.next.i, %16 ]
  %17 = getelementptr i32, ptr @hf_nvmeof_prop_get_ccap, i64 %indvars.iv.i
  %18 = load i32, ptr %17, align 4
  %19 = tail call ptr @proto_tree_add_item(ptr noundef %15, i32 noundef %18, ptr noundef %1, i32 noundef %2, i32 noundef 8, i32 noundef -2147483648)
  %indvars.iv.next.i = add nuw nsw i64 %indvars.iv.i, 1
  %exitcond.not.i = icmp eq i64 %indvars.iv.next.i, 17
  br i1 %exitcond.not.i, label %add_group_mask_entry.exit, label %16, !llvm.loop !10

20:                                               ; preds = %5
  %21 = load i32, ptr @hf_nvmeof_prop_get_vs, align 16
  %22 = tail call ptr @proto_tree_add_item(ptr noundef %9, i32 noundef %21, ptr noundef %1, i32 noundef %2, i32 noundef 4, i32 noundef -2147483648)
  %23 = load i32, ptr @ett_data, align 4
  %24 = tail call ptr @proto_item_add_subtree(ptr noundef %22, i32 noundef %23)
  br label %25

25:                                               ; preds = %25, %20
  %indvars.iv.i30 = phi i64 [ 1, %20 ], [ %indvars.iv.next.i31, %25 ]
  %26 = getelementptr i32, ptr @hf_nvmeof_prop_get_vs, i64 %indvars.iv.i30
  %27 = load i32, ptr %26, align 4
  %28 = tail call ptr @proto_tree_add_item(ptr noundef %24, i32 noundef %27, ptr noundef %1, i32 noundef %2, i32 noundef 4, i32 noundef -2147483648)
  %indvars.iv.next.i31 = add nuw nsw i64 %indvars.iv.i30, 1
  %exitcond.not.i32 = icmp eq i64 %indvars.iv.next.i31, 4
  br i1 %exitcond.not.i32, label %.critedge, label %25, !llvm.loop !10

29:                                               ; preds = %5
  %30 = load i32, ptr @hf_nvmeof_prop_get_set_cc, align 16
  %31 = tail call ptr @proto_tree_add_item(ptr noundef %9, i32 noundef %30, ptr noundef %1, i32 noundef %2, i32 noundef 4, i32 noundef -2147483648)
  %32 = load i32, ptr @ett_data, align 4
  %33 = tail call ptr @proto_item_add_subtree(ptr noundef %31, i32 noundef %32)
  br label %34

34:                                               ; preds = %34, %29
  %indvars.iv.i34 = phi i64 [ 1, %29 ], [ %indvars.iv.next.i35, %34 ]
  %35 = getelementptr i32, ptr @hf_nvmeof_prop_get_set_cc, i64 %indvars.iv.i34
  %36 = load i32, ptr %35, align 4
  %37 = tail call ptr @proto_tree_add_item(ptr noundef %33, i32 noundef %36, ptr noundef %1, i32 noundef %2, i32 noundef 4, i32 noundef -2147483648)
  %indvars.iv.next.i35 = add nuw nsw i64 %indvars.iv.i34, 1
  %exitcond.not.i36 = icmp eq i64 %indvars.iv.next.i35, 10
  br i1 %exitcond.not.i36, label %.critedge, label %34, !llvm.loop !10

38:                                               ; preds = %5
  %39 = load i32, ptr @hf_nvmeof_prop_get_set_csts, align 16
  %40 = tail call ptr @proto_tree_add_item(ptr noundef %9, i32 noundef %39, ptr noundef %1, i32 noundef %2, i32 noundef 4, i32 noundef -2147483648)
  %41 = load i32, ptr @ett_data, align 4
  %42 = tail call ptr @proto_item_add_subtree(ptr noundef %40, i32 noundef %41)
  br label %43

43:                                               ; preds = %43, %38
  %indvars.iv.i38 = phi i64 [ 1, %38 ], [ %indvars.iv.next.i39, %43 ]
  %44 = getelementptr i32, ptr @hf_nvmeof_prop_get_set_csts, i64 %indvars.iv.i38
  %45 = load i32, ptr %44, align 4
  %46 = tail call ptr @proto_tree_add_item(ptr noundef %42, i32 noundef %45, ptr noundef %1, i32 noundef %2, i32 noundef 4, i32 noundef -2147483648)
  %indvars.iv.next.i39 = add nuw nsw i64 %indvars.iv.i38, 1
  %exitcond.not.i40 = icmp eq i64 %indvars.iv.next.i39, 7
  br i1 %exitcond.not.i40, label %.critedge, label %43, !llvm.loop !10

.critedge.loopexit51:                             ; preds = %5
  %47 = load i32, ptr @hf_nvmeof_prop_get_set_nssr, align 4
  %48 = tail call ptr @proto_tree_add_item(ptr noundef %9, i32 noundef %47, ptr noundef %1, i32 noundef %2, i32 noundef 4, i32 noundef -2147483648)
  %49 = load i32, ptr @ett_data, align 4
  %50 = tail call ptr @proto_item_add_subtree(ptr noundef %48, i32 noundef %49)
  %51 = load i32, ptr getelementptr inbounds nuw (i8, ptr @hf_nvmeof_prop_get_set_nssr, i64 4), align 4
  %52 = tail call ptr @proto_tree_add_item(ptr noundef %50, i32 noundef %51, ptr noundef %1, i32 noundef %2, i32 noundef 4, i32 noundef -2147483648)
  br label %.critedge

53:                                               ; preds = %5
  %54 = icmp eq i8 %4, 0
  br i1 %54, label %55, label %58

55:                                               ; preds = %53
  %56 = load i32, ptr @hf_nvmeof_prop_get_set_data_4B, align 4
  %57 = tail call ptr @proto_tree_add_item(ptr noundef %9, i32 noundef %56, ptr noundef %1, i32 noundef %2, i32 noundef 4, i32 noundef -2147483648)
  br label %.critedge

58:                                               ; preds = %53
  %59 = load i32, ptr @hf_nvmeof_prop_get_set_data_8B, align 4
  %60 = tail call ptr @proto_tree_add_item(ptr noundef %9, i32 noundef %59, ptr noundef %1, i32 noundef %2, i32 noundef 8, i32 noundef -2147483648)
  br label %add_group_mask_entry.exit

.critedge:                                        ; preds = %43, %34, %25, %.critedge.loopexit51, %55
  %61 = load i32, ptr @hf_nvmeof_prop_get_set_data_4B_rsvd, align 4
  %62 = add i32 %2, 4
  %63 = tail call ptr @proto_tree_add_item(ptr noundef %9, i32 noundef %61, ptr noundef %1, i32 noundef %62, i32 noundef 4, i32 noundef -2147483648)
  br label %add_group_mask_entry.exit

add_group_mask_entry.exit:                        ; preds = %16, %58, %.critedge
  ret void
}